target datalayout = "e-m:e-p270:32:32-p271:32:32-p272:64:64-i64:64-i128:128-f80:128-n8:16:32:64-S128"
target triple = "x86_64-pc-linux-gnu"

%"struct.faiss::RangeSearchResult" = type { ptr, i64, ptr, ptr, ptr, i64 }

@_ZTVN5faiss17RangeSearchResultE = unnamed_addr constant { [5 x ptr] } { [5 x ptr] [ptr null, ptr @_ZTIN5faiss17RangeSearchResultE, ptr @_ZN5faiss17RangeSearchResult13do_allocationEv, ptr @_ZN5faiss17RangeSearchResultD1Ev, ptr @_ZN5faiss17RangeSearchResultD0Ev] }, align 8

; Function Attrs: mustprogress nounwind uwtable
define void @_ZN5faiss17RangeSearchResultD2Ev(ptr noundef nonnull align 8 dereferenceable(48) %0) unnamed_addr #1 align 2 {
  %2 = alloca ptr, align 8
  store ptr %0, ptr %2, align 8
  %3 = load ptr, ptr %2, align 8
  store ptr getelementptr inbounds ({ [5 x ptr] }, ptr @_ZTVN5faiss17RangeSearchResultE, i32 0, i32 0, i32 2), ptr %3, align 8
  %4 = getelementptr inbounds %"struct.faiss::RangeSearchResult", ptr %3, i32 0, i32 3
  %5 = load ptr, ptr %4, align 8
  %6 = icmp eq ptr %5, null
  br i1 %6, label %8, label %7

7:                                                ; preds = %1
  call void @_ZdaPv(ptr noundef %5) #16
  br label %8

8:                                                ; preds = %7, %1
  %9 = getelementptr inbounds %"struct.faiss::RangeSearchResult", ptr %3, i32 0, i32 4
  %10 = load ptr, ptr %9, align 8
  %11 = icmp eq ptr %10, null
  br i1 %11, label %13, label %12

12:                                               ; preds = %8
  call void @_ZdaPv(ptr noundef %10) #16
  br label %13

13:                                               ; preds = %12, %8
  %14 = getelementptr inbounds %"struct.faiss::RangeSearchResult", ptr %3, i32 0, i32 2
  %15 = load ptr, ptr %14, align 8
  %16 = icmp eq ptr %15, null
  br i1 %16, label %18, label %17

17:                                               ; preds = %13
  call void @_ZdaPv(ptr noundef %15) #16
  br label %18

18:                                               ; preds = %17, %13
  ret void
}