; Function Attrs: mustprogress nounwind uwtable
define void @_ZN5faiss17RangeSearchResultD2Ev(ptr nocapture noundef nonnull align 8 dereferenceable(48) %0) unnamed_addr #1 align 2 {
  store ptr getelementptr inbounds ({ [5 x ptr] }, ptr @_ZTVN5faiss17RangeSearchResultE, i64 0, i32 0, i64 2), ptr %0, align 8
  %2 = getelementptr inbounds i8, ptr %0, i64 24
  %3 = load ptr, ptr %2, align 8
  %4 = icmp eq ptr %3, null
  br i1 %4, label %6, label %5

5:                                                ; preds = %1
  tail call void @_ZdaPv(ptr noundef nonnull %3) #23
  br label %6

6:                                                ; preds = %5, %1
  %7 = getelementptr inbounds i8, ptr %0, i64 32
  %8 = load ptr, ptr %7, align 8
  %9 = icmp eq ptr %8, null
  br i1 %9, label %11, label %10

10:                                               ; preds = %6
  tail call void @_ZdaPv(ptr noundef nonnull %8) #23
  br label %11

11:                                               ; preds = %10, %6
  %12 = getelementptr inbounds i8, ptr %0, i64 16
  %13 = load ptr, ptr %12, align 8
  %14 = icmp eq ptr %13, null
  br i1 %14, label %16, label %15

15:                                               ; preds = %11
  tail call void @_ZdaPv(ptr noundef nonnull %13) #23
  br label %16

16:                                               ; preds = %15, %11
  ret void
}